; Function Attrs: mustprogress nounwind uwtable
define dso_local void @_ZNK4llvm13TargetMachine17getNameWithPrefixERNS_15SmallVectorImplIcEEPKNS_11GlobalValueERNS_7ManglerEb(ptr noundef nonnull align 8 dereferenceable(1232) %0, ptr noundef nonnull align 8 dereferenceable(24) %1, ptr noundef %2, ptr noundef nonnull align 8 dereferenceable(24) %3, i1 noundef zeroext %4) local_unnamed_addr #0 align 2 {
  br i1 %4, label %11, label %6

6:                                                ; preds = %5
  %7 = getelementptr inbounds nuw i8, ptr %2, i64 32
  %8 = load i32, ptr %7, align 8
  %9 = and i32 %8, 15
  %10 = icmp eq i32 %9, 8
  br i1 %10, label %12, label %11

11:                                               ; preds = %6, %5
  tail call void @_ZNK4llvm7Mangler17getNameWithPrefixERNS_15SmallVectorImplIcEEPKNS_11GlobalValueEb(ptr noundef nonnull align 8 dereferenceable(24) %3, ptr noundef nonnull align 8 dereferenceable(24) %1, ptr noundef %2, i1 noundef zeroext false) #15
  br label %20

12:                                               ; preds = %6
  %13 = load ptr, ptr %0, align 8
  %14 = getelementptr inbounds i8, ptr %13, i64 24
  %15 = load ptr, ptr %14, align 8
  %16 = tail call noundef ptr %15(ptr noundef nonnull align 8 dereferenceable(1232) %0) #15
  %17 = load ptr, ptr %16, align 8
  %18 = getelementptr inbounds i8, ptr %17, i64 80
  %19 = load ptr, ptr %18, align 8
  tail call void %19(ptr noundef nonnull align 8 dereferenceable(968) %16, ptr noundef nonnull align 8 dereferenceable(24) %1, ptr noundef nonnull %2, ptr noundef nonnull align 8 dereferenceable(1232) %0) #15
  br label %20

20:                                               ; preds = %12, %11
  ret void
}